target datalayout = "e-m:e-p270:32:32-p271:32:32-p272:64:64-i64:64-i128:128-f80:128-n8:16:32:64-S128"
target triple = "x86_64-pc-linux-gnu"

%struct.nghttp2_session = type { %struct.nghttp2_map, %struct.nghttp2_stream, %struct.nghttp2_outbound_queue, %struct.nghttp2_outbound_queue, %struct.nghttp2_outbound_queue, [8 x %struct.anon], %struct.nghttp2_active_outbound_item, %struct.nghttp2_inbound_frame, %struct.nghttp2_hd_deflater, %struct.nghttp2_hd_inflater, %struct.nghttp2_session_callbacks, %struct.nghttp2_mem, ptr, ptr, ptr, ptr, ptr, ptr, i64, i64, i64, i64, i64, i64, i64, i64, i64, i64, i64, i64, i32, i32, i32, i32, i32, i32, i32, i32, i32, i32, i32, i32, i8, %struct.nghttp2_settings_storage, %struct.nghttp2_settings_storage, i32, i32, i32, i8, i8, i8, i8, i8, i8, i8, [32 x i8] }
%struct.nghttp2_map = type { ptr, ptr, i64, i32, i32 }
%struct.nghttp2_stream = type { %struct.nghttp2_pq_entry, %struct.nghttp2_pq, i64, i64, i64, i64, i64, i64, ptr, ptr, ptr, ptr, ptr, ptr, ptr, ptr, i64, i32, i32, i32, i32, i32, i32, i32, i32, i32, i32, i16, i32, i8, i8, i8, i8, i8, i8 }
%struct.nghttp2_pq_entry = type { i64 }
%struct.nghttp2_pq = type { ptr, ptr, i64, i64, ptr }
%struct.nghttp2_outbound_queue = type { ptr, ptr, i64 }
%struct.anon = type { %struct.nghttp2_pq }
%struct.nghttp2_active_outbound_item = type { ptr, %struct.nghttp2_bufs, i32 }
%struct.nghttp2_bufs = type { ptr, ptr, ptr, i64, i64, i64, i64, i64 }
%struct.nghttp2_inbound_frame = type { %union.nghttp2_frame, %union.nghttp2_ext_frame_payload, ptr, %struct.nghttp2_buf, %struct.nghttp2_buf, ptr, i64, i64, i64, i64, i32, [32 x i8] }
%union.nghttp2_frame = type { %struct.nghttp2_headers }
%struct.nghttp2_headers = type { %struct.nghttp2_frame_hd, i64, %struct.nghttp2_priority_spec, ptr, i64, i32 }
%struct.nghttp2_frame_hd = type { i64, i32, i8, i8, i8 }
%struct.nghttp2_priority_spec = type { i32, i32, i8 }
%union.nghttp2_ext_frame_payload = type { %struct.nghttp2_ext_altsvc }
%struct.nghttp2_ext_altsvc = type { ptr, i64, ptr, i64 }
%struct.nghttp2_buf = type { ptr, ptr, ptr, ptr, ptr }
%struct.nghttp2_hd_deflater = type { %struct.nghttp2_hd_context, %struct.nghttp2_hd_map, i64, i64, i8 }
%struct.nghttp2_hd_context = type { %struct.nghttp2_hd_ringbuf, ptr, i64, i64, i32, i8 }
%struct.nghttp2_hd_ringbuf = type { ptr, i64, i64, i64 }
%struct.nghttp2_hd_map = type { [128 x ptr] }
%struct.nghttp2_hd_inflater = type { %struct.nghttp2_hd_context, %struct.nghttp2_hd_huff_decode_context, %struct.nghttp2_buf, %struct.nghttp2_buf, ptr, ptr, ptr, ptr, i64, i64, i64, i64, i64, i32, i32, i8, i8, i8 }
%struct.nghttp2_hd_huff_decode_context = type { i16 }
%struct.nghttp2_session_callbacks = type { ptr, ptr, ptr, ptr, ptr, ptr, ptr, ptr, ptr, ptr, ptr, ptr, ptr, ptr, ptr, ptr, ptr, ptr, ptr, ptr, ptr, ptr, ptr }
%struct.nghttp2_mem = type { ptr, ptr, ptr, ptr, ptr }
%struct.nghttp2_settings_storage = type { i32, i32, i32, i32, i32, i32, i32, i32 }

; Function Attrs: nounwind uwtable
define dso_local i32 @nghttp2_session_destroy_stream(ptr noundef %0, ptr noundef %1) #0 {
  %3 = alloca i32, align 4
  %4 = alloca ptr, align 8
  %5 = alloca ptr, align 8
  %6 = alloca ptr, align 8
  %7 = alloca i32, align 4
  %8 = alloca i32, align 4
  store ptr %0, ptr %4, align 8, !tbaa !8
  store ptr %1, ptr %5, align 8, !tbaa !46
  call void @llvm.lifetime.start.p0(i64 8, ptr %6) #9
  call void @llvm.lifetime.start.p0(i64 4, ptr %7) #9
  br label %9

9:                                                ; preds = %2
  br label %10

10:                                               ; preds = %9
  br label %11

11:                                               ; preds = %10
  %12 = load ptr, ptr %4, align 8, !tbaa !8
  %13 = getelementptr inbounds nuw %struct.nghttp2_session, ptr %12, i32 0, i32 11
  store ptr %13, ptr %6, align 8, !tbaa !53
  %14 = load ptr, ptr %5, align 8, !tbaa !46
  %15 = call i32 @nghttp2_stream_in_dep_tree(ptr noundef %14)
  %16 = icmp ne i32 %15, 0
  br i1 %16, label %17, label %25

17:                                               ; preds = %11
  %18 = load ptr, ptr %5, align 8, !tbaa !46
  %19 = call i32 @nghttp2_stream_dep_remove(ptr noundef %18)
  store i32 %19, ptr %7, align 4, !tbaa !4
  %20 = load i32, ptr %7, align 4, !tbaa !4
  %21 = icmp ne i32 %20, 0
  br i1 %21, label %22, label %24

22:                                               ; preds = %17
  %23 = load i32, ptr %7, align 4, !tbaa !4
  store i32 %23, ptr %3, align 4
  store i32 1, ptr %8, align 4
  br label %35

24:                                               ; preds = %17
  br label %25

25:                                               ; preds = %24, %11
  %26 = load ptr, ptr %4, align 8, !tbaa !8
  %27 = getelementptr inbounds nuw %struct.nghttp2_session, ptr %26, i32 0, i32 0
  %28 = load ptr, ptr %5, align 8, !tbaa !46
  %29 = getelementptr inbounds nuw %struct.nghttp2_stream, ptr %28, i32 0, i32 17
  %30 = load i32, ptr %29, align 8, !tbaa !138
  %31 = call i32 @nghttp2_map_remove(ptr noundef %27, i32 noundef %30)
  %32 = load ptr, ptr %5, align 8, !tbaa !46
  call void @nghttp2_stream_free(ptr noundef %32)
  %33 = load ptr, ptr %6, align 8, !tbaa !53
  %34 = load ptr, ptr %5, align 8, !tbaa !46
  call void @nghttp2_mem_free(ptr noundef %33, ptr noundef %34)
  store i32 0, ptr %3, align 4
  store i32 1, ptr %8, align 4
  br label %35

35:                                               ; preds = %25, %22
  call void @llvm.lifetime.end.p0(i64 4, ptr %7) #9
  call void @llvm.lifetime.end.p0(i64 8, ptr %6) #9
  %36 = load i32, ptr %3, align 4
  ret i32 %36
}

; Function Attrs: nounwind uwtable
define dso_local i32 @nghttp2_session_adjust_closed_stream(ptr noundef %0) #0 {
  %2 = alloca i32, align 4
  %3 = alloca ptr, align 8
  %4 = alloca i64, align 8
  %5 = alloca i32, align 4
  %6 = alloca ptr, align 8
  %7 = alloca ptr, align 8
  %8 = alloca i32, align 4
  store ptr %0, ptr %3, align 8, !tbaa !8
  call void @llvm.lifetime.start.p0(i64 8, ptr %4) #9
  call void @llvm.lifetime.start.p0(i64 4, ptr %5) #9
  %9 = load ptr, ptr %3, align 8, !tbaa !8
  %10 = getelementptr inbounds nuw %struct.nghttp2_session, ptr %9, i32 0, i32 44
  %11 = getelementptr inbounds nuw %struct.nghttp2_settings_storage, ptr %10, i32 0, i32 2
  %12 = load i32, ptr %11, align 4, !tbaa !160
  %13 = icmp eq i32 %12, -1
  br i1 %13, label %14, label %19

14:                                               ; preds = %1
  %15 = load ptr, ptr %3, align 8, !tbaa !8
  %16 = getelementptr inbounds nuw %struct.nghttp2_session, ptr %15, i32 0, i32 46
  %17 = load i32, ptr %16, align 8, !tbaa !65
  %18 = zext i32 %17 to i64
  store i64 %18, ptr %4, align 8, !tbaa !44
  br label %25

19:                                               ; preds = %1
  %20 = load ptr, ptr %3, align 8, !tbaa !8
  %21 = getelementptr inbounds nuw %struct.nghttp2_session, ptr %20, i32 0, i32 44
  %22 = getelementptr inbounds nuw %struct.nghttp2_settings_storage, ptr %21, i32 0, i32 2
  %23 = load i32, ptr %22, align 4, !tbaa !160
  %24 = zext i32 %23 to i64
  store i64 %24, ptr %4, align 8, !tbaa !44
  br label %25

25:                                               ; preds = %19, %14
  br label %26

26:                                               ; preds = %25
  br label %27

27:                                               ; preds = %26
  br label %28

28:                                               ; preds = %27
  br label %29

29:                                               ; preds = %83, %28
  %30 = load ptr, ptr %3, align 8, !tbaa !8
  %31 = getelementptr inbounds nuw %struct.nghttp2_session, ptr %30, i32 0, i32 23
  %32 = load i64, ptr %31, align 8, !tbaa !159
  %33 = icmp ugt i64 %32, 0
  br i1 %33, label %34, label %44

34:                                               ; preds = %29
  %35 = load ptr, ptr %3, align 8, !tbaa !8
  %36 = getelementptr inbounds nuw %struct.nghttp2_session, ptr %35, i32 0, i32 23
  %37 = load i64, ptr %36, align 8, !tbaa !159
  %38 = load ptr, ptr %3, align 8, !tbaa !8
  %39 = getelementptr inbounds nuw %struct.nghttp2_session, ptr %38, i32 0, i32 20
  %40 = load i64, ptr %39, align 8, !tbaa !137
  %41 = add i64 %37, %40
  %42 = load i64, ptr %4, align 8, !tbaa !44
  %43 = icmp ugt i64 %41, %42
  br label %44

44:                                               ; preds = %34, %29
  %45 = phi i1 [ false, %29 ], [ %43, %34 ]
  br i1 %45, label %46, label %84

46:                                               ; preds = %44
  call void @llvm.lifetime.start.p0(i64 8, ptr %6) #9
  call void @llvm.lifetime.start.p0(i64 8, ptr %7) #9
  %47 = load ptr, ptr %3, align 8, !tbaa !8
  %48 = getelementptr inbounds nuw %struct.nghttp2_session, ptr %47, i32 0, i32 13
  %49 = load ptr, ptr %48, align 8, !tbaa !158
  store ptr %49, ptr %6, align 8, !tbaa !46
  %50 = load ptr, ptr %6, align 8, !tbaa !46
  %51 = getelementptr inbounds nuw %struct.nghttp2_stream, ptr %50, i32 0, i32 13
  %52 = load ptr, ptr %51, align 8, !tbaa !150
  store ptr %52, ptr %7, align 8, !tbaa !46
  %53 = load ptr, ptr %3, align 8, !tbaa !8
  %54 = load ptr, ptr %6, align 8, !tbaa !46
  %55 = call i32 @nghttp2_session_destroy_stream(ptr noundef %53, ptr noundef %54)
  store i32 %55, ptr %5, align 4, !tbaa !4
  %56 = load i32, ptr %5, align 4, !tbaa !4
  %57 = icmp ne i32 %56, 0
  br i1 %57, label %58, label %60

58:                                               ; preds = %46
  %59 = load i32, ptr %5, align 4, !tbaa !4
  store i32 %59, ptr %2, align 4
  store i32 1, ptr %8, align 4
  br label %81

60:                                               ; preds = %46
  %61 = load ptr, ptr %7, align 8, !tbaa !46
  %62 = load ptr, ptr %3, align 8, !tbaa !8
  %63 = getelementptr inbounds nuw %struct.nghttp2_session, ptr %62, i32 0, i32 13
  store ptr %61, ptr %63, align 8, !tbaa !158
  %64 = load ptr, ptr %3, align 8, !tbaa !8
  %65 = getelementptr inbounds nuw %struct.nghttp2_session, ptr %64, i32 0, i32 13
  %66 = load ptr, ptr %65, align 8, !tbaa !158
  %67 = icmp ne ptr %66, null
  br i1 %67, label %68, label %73

68:                                               ; preds = %60
  %69 = load ptr, ptr %3, align 8, !tbaa !8
  %70 = getelementptr inbounds nuw %struct.nghttp2_session, ptr %69, i32 0, i32 13
  %71 = load ptr, ptr %70, align 8, !tbaa !158
  %72 = getelementptr inbounds nuw %struct.nghttp2_stream, ptr %71, i32 0, i32 12
  store ptr null, ptr %72, align 8, !tbaa !149
  br label %76

73:                                               ; preds = %60
  %74 = load ptr, ptr %3, align 8, !tbaa !8
  %75 = getelementptr inbounds nuw %struct.nghttp2_session, ptr %74, i32 0, i32 14
  store ptr null, ptr %75, align 8, !tbaa !157
  br label %76

76:                                               ; preds = %73, %68
  %77 = load ptr, ptr %3, align 8, !tbaa !8
  %78 = getelementptr inbounds nuw %struct.nghttp2_session, ptr %77, i32 0, i32 23
  %79 = load i64, ptr %78, align 8, !tbaa !159
  %80 = add i64 %79, -1
  store i64 %80, ptr %78, align 8, !tbaa !159
  store i32 0, ptr %8, align 4
  br label %81

81:                                               ; preds = %76, %58
  call void @llvm.lifetime.end.p0(i64 8, ptr %7) #9
  call void @llvm.lifetime.end.p0(i64 8, ptr %6) #9
  %82 = load i32, ptr %8, align 4
  switch i32 %82, label %85 [
    i32 0, label %83
  ]

83:                                               ; preds = %81
  br label %29, !llvm.loop !161

84:                                               ; preds = %44
  store i32 0, ptr %2, align 4
  store i32 1, ptr %8, align 4
  br label %85

85:                                               ; preds = %84, %81
  call void @llvm.lifetime.end.p0(i64 4, ptr %5) #9
  call void @llvm.lifetime.end.p0(i64 8, ptr %4) #9
  %86 = load i32, ptr %2, align 4
  ret i32 %86
}