; Function Attrs: nounwind uwtable
define dso_local i32 @nghttp2_session_adjust_closed_stream(ptr noundef %0) local_unnamed_addr #1 {
  %2 = getelementptr inbounds nuw i8, ptr %0, i64 2804
  %3 = load i32, ptr %2, align 4, !tbaa !157
  %4 = icmp eq i32 %3, -1
  br i1 %4, label %5, label %8

5:                                                ; preds = %1
  %6 = getelementptr inbounds nuw i8, ptr %0, i64 2832
  %7 = load i32, ptr %6, align 8, !tbaa !55
  br label %8

8:                                                ; preds = %1, %5
  %.021.in = phi i32 [ %7, %5 ], [ %3, %1 ]
  %.021 = zext i32 %.021.in to i64
  %9 = getelementptr inbounds nuw i8, ptr %0, i64 2632
  %10 = getelementptr inbounds nuw i8, ptr %0, i64 2656
  %11 = load i64, ptr %10, align 8, !tbaa !156
  %.not35 = icmp eq i64 %11, 0
  br i1 %.not35, label %.critedge, label %.lr.ph

.lr.ph:                                           ; preds = %8
  %12 = getelementptr inbounds nuw i8, ptr %0, i64 2576
  %13 = getelementptr inbounds nuw i8, ptr %0, i64 2528
  %14 = getelementptr inbounds nuw i8, ptr %0, i64 2584
  br label %15

15:                                               ; preds = %.lr.ph, %nghttp2_session_destroy_stream.exit
  %16 = phi i64 [ %11, %.lr.ph ], [ %35, %nghttp2_session_destroy_stream.exit ]
  %17 = load i64, ptr %9, align 8, !tbaa !137
  %18 = add i64 %17, %16
  %19 = icmp ugt i64 %18, %.021
  br i1 %19, label %20, label %.critedge

20:                                               ; preds = %15
  %21 = load ptr, ptr %12, align 8, !tbaa !155
  %22 = getelementptr inbounds nuw i8, ptr %21, i64 136
  %23 = load ptr, ptr %22, align 8, !tbaa !124
  %24 = tail call i32 @nghttp2_stream_in_dep_tree(ptr noundef %21) #20
  %.not.i = icmp eq i32 %24, 0
  br i1 %.not.i, label %27, label %25

25:                                               ; preds = %20
  %26 = tail call i32 @nghttp2_stream_dep_remove(ptr noundef nonnull %21) #20
  %.not11.i = icmp eq i32 %26, 0
  br i1 %.not11.i, label %27, label %.critedge

27:                                               ; preds = %20, %25
  %28 = getelementptr inbounds nuw i8, ptr %21, i64 168
  %29 = load i32, ptr %28, align 8, !tbaa !142
  %30 = tail call i32 @nghttp2_map_remove(ptr noundef nonnull %0, i32 noundef %29) #20
  tail call void @nghttp2_stream_free(ptr noundef nonnull %21) #20
  tail call void @nghttp2_mem_free(ptr noundef nonnull %13, ptr noundef nonnull %21) #20
  store ptr %23, ptr %12, align 8, !tbaa !155
  %.not27 = icmp eq ptr %23, null
  br i1 %.not27, label %33, label %31

31:                                               ; preds = %27
  %32 = getelementptr inbounds nuw i8, ptr %23, i64 128
  store ptr null, ptr %32, align 8, !tbaa !123
  br label %nghttp2_session_destroy_stream.exit

33:                                               ; preds = %27
  store ptr null, ptr %14, align 8, !tbaa !154
  br label %nghttp2_session_destroy_stream.exit

nghttp2_session_destroy_stream.exit:              ; preds = %31, %33
  %34 = load i64, ptr %10, align 8, !tbaa !156
  %35 = add i64 %34, -1
  store i64 %35, ptr %10, align 8, !tbaa !156
  %.not = icmp eq i64 %35, 0
  br i1 %.not, label %.critedge, label %15, !llvm.loop !158

.critedge:                                        ; preds = %nghttp2_session_destroy_stream.exit, %15, %25, %8
  %.2 = phi i32 [ 0, %8 ], [ %26, %25 ], [ 0, %15 ], [ 0, %nghttp2_session_destroy_stream.exit ]
  ret i32 %.2
}